target datalayout = "e-m:e-p270:32:32-p271:32:32-p272:64:64-i64:64-i128:128-f80:128-n8:16:32:64-S128"
target triple = "x86_64-unknown-linux-gnu"

%struct.iovec = type { ptr, i64 }
%struct.QEMUIOVector = type { ptr, i32, %union.anon }
%union.anon = type { %struct.anon }
%struct.anon = type { i32, %struct.iovec }

@.str = private unnamed_addr constant [12 x i8] c"offset == 0\00", align 1
@.str.1 = private unnamed_addr constant [19 x i8] c"../qemu/util/iov.c\00", align 1
@__PRETTY_FUNCTION__.iov_to_buf_full = private unnamed_addr constant [89 x i8] c"size_t iov_to_buf_full(const struct iovec *, const unsigned int, size_t, void *, size_t)\00", align 1

; Function Attrs: nounwind sspstrong uwtable
define dso_local i64 @iov_to_buf_full(ptr noundef %iov, i32 noundef %iov_cnt, i64 noundef %offset, ptr noundef %buf, i64 noundef %bytes) #0 {
entry:
  %iov.addr = alloca ptr, align 8
  %iov_cnt.addr = alloca i32, align 4
  %offset.addr = alloca i64, align 8
  %buf.addr = alloca ptr, align 8
  %bytes.addr = alloca i64, align 8
  %done = alloca i64, align 8
  %i = alloca i32, align 4
  %len = alloca i64, align 8
  %_a2 = alloca i64, align 8
  %_b3 = alloca i64, align 8
  %tmp = alloca i64, align 8
  store ptr %iov, ptr %iov.addr, align 8
  store i32 %iov_cnt, ptr %iov_cnt.addr, align 4
  store i64 %offset, ptr %offset.addr, align 8
  store ptr %buf, ptr %buf.addr, align 8
  store i64 %bytes, ptr %bytes.addr, align 8
  store i32 0, ptr %i, align 4
  store i64 0, ptr %done, align 8
  br label %for.cond

for.cond:                                         ; preds = %for.inc, %entry
  %0 = load i64, ptr %offset.addr, align 8
  %tobool = icmp ne i64 %0, 0
  br i1 %tobool, label %land.rhs, label %lor.lhs.false

lor.lhs.false:                                    ; preds = %for.cond
  %1 = load i64, ptr %done, align 8
  %2 = load i64, ptr %bytes.addr, align 8
  %cmp = icmp ult i64 %1, %2
  br i1 %cmp, label %land.rhs, label %land.end

land.rhs:                                         ; preds = %lor.lhs.false, %for.cond
  %3 = load i32, ptr %i, align 4
  %4 = load i32, ptr %iov_cnt.addr, align 4
  %cmp1 = icmp ult i32 %3, %4
  br label %land.end

land.end:                                         ; preds = %land.rhs, %lor.lhs.false
  %5 = phi i1 [ false, %lor.lhs.false ], [ %cmp1, %land.rhs ]
  br i1 %5, label %for.body, label %for.end

for.body:                                         ; preds = %land.end
  %6 = load i64, ptr %offset.addr, align 8
  %7 = load ptr, ptr %iov.addr, align 8
  %8 = load i32, ptr %i, align 4
  %idxprom = zext i32 %8 to i64
  %arrayidx = getelementptr %struct.iovec, ptr %7, i64 %idxprom
  %iov_len = getelementptr inbounds %struct.iovec, ptr %arrayidx, i32 0, i32 1
  %9 = load i64, ptr %iov_len, align 8
  %cmp2 = icmp ult i64 %6, %9
  br i1 %cmp2, label %if.then, label %if.else

if.then:                                          ; preds = %for.body
  %10 = load ptr, ptr %iov.addr, align 8
  %11 = load i32, ptr %i, align 4
  %idxprom3 = zext i32 %11 to i64
  %arrayidx4 = getelementptr %struct.iovec, ptr %10, i64 %idxprom3
  %iov_len5 = getelementptr inbounds %struct.iovec, ptr %arrayidx4, i32 0, i32 1
  %12 = load i64, ptr %iov_len5, align 8
  %13 = load i64, ptr %offset.addr, align 8
  %sub = sub i64 %12, %13
  store i64 %sub, ptr %_a2, align 8
  %14 = load i64, ptr %bytes.addr, align 8
  %15 = load i64, ptr %done, align 8
  %sub6 = sub i64 %14, %15
  store i64 %sub6, ptr %_b3, align 8
  %16 = load i64, ptr %_a2, align 8
  %17 = load i64, ptr %_b3, align 8
  %cmp7 = icmp ult i64 %16, %17
  br i1 %cmp7, label %cond.true, label %cond.false

cond.true:                                        ; preds = %if.then
  %18 = load i64, ptr %_a2, align 8
  br label %cond.end

cond.false:                                       ; preds = %if.then
  %19 = load i64, ptr %_b3, align 8
  br label %cond.end

cond.end:                                         ; preds = %cond.false, %cond.true
  %cond = phi i64 [ %18, %cond.true ], [ %19, %cond.false ]
  store i64 %cond, ptr %tmp, align 8
  %20 = load i64, ptr %tmp, align 8
  store i64 %20, ptr %len, align 8
  %21 = load ptr, ptr %buf.addr, align 8
  %22 = load i64, ptr %done, align 8
  %add.ptr = getelementptr i8, ptr %21, i64 %22
  %23 = load ptr, ptr %iov.addr, align 8
  %24 = load i32, ptr %i, align 4
  %idxprom8 = zext i32 %24 to i64
  %arrayidx9 = getelementptr %struct.iovec, ptr %23, i64 %idxprom8
  %iov_base = getelementptr inbounds %struct.iovec, ptr %arrayidx9, i32 0, i32 0
  %25 = load ptr, ptr %iov_base, align 8
  %26 = load i64, ptr %offset.addr, align 8
  %add.ptr10 = getelementptr i8, ptr %25, i64 %26
  %27 = load i64, ptr %len, align 8
  call void @llvm.memcpy.p0.p0.i64(ptr align 1 %add.ptr, ptr align 1 %add.ptr10, i64 %27, i1 false)
  %28 = load i64, ptr %len, align 8
  %29 = load i64, ptr %done, align 8
  %add = add i64 %29, %28
  store i64 %add, ptr %done, align 8
  store i64 0, ptr %offset.addr, align 8
  br label %if.end

if.else:                                          ; preds = %for.body
  %30 = load ptr, ptr %iov.addr, align 8
  %31 = load i32, ptr %i, align 4
  %idxprom11 = zext i32 %31 to i64
  %arrayidx12 = getelementptr %struct.iovec, ptr %30, i64 %idxprom11
  %iov_len13 = getelementptr inbounds %struct.iovec, ptr %arrayidx12, i32 0, i32 1
  %32 = load i64, ptr %iov_len13, align 8
  %33 = load i64, ptr %offset.addr, align 8
  %sub14 = sub i64 %33, %32
  store i64 %sub14, ptr %offset.addr, align 8
  br label %if.end

if.end:                                           ; preds = %if.else, %cond.end
  br label %for.inc

for.inc:                                          ; preds = %if.end
  %34 = load i32, ptr %i, align 4
  %inc = add i32 %34, 1
  store i32 %inc, ptr %i, align 4
  br label %for.cond, !llvm.loop !7

for.end:                                          ; preds = %land.end
  %35 = load i64, ptr %offset.addr, align 8
  %cmp15 = icmp eq i64 %35, 0
  br i1 %cmp15, label %if.then16, label %if.else17

if.then16:                                        ; preds = %for.end
  br label %if.end18

if.else17:                                        ; preds = %for.end
  call void @__assert_fail(ptr noundef @.str, ptr noundef @.str.1, i32 noundef 58, ptr noundef @__PRETTY_FUNCTION__.iov_to_buf_full) #9
  unreachable

if.end18:                                         ; preds = %if.then16
  %36 = load i64, ptr %done, align 8
  ret i64 %36
}

; Function Attrs: nounwind sspstrong uwtable
define internal i64 @iov_to_buf(ptr noundef %iov, i32 noundef %iov_cnt, i64 noundef %offset, ptr noundef %buf, i64 noundef %bytes) #0 {
entry:
  %retval = alloca i64, align 8
  %iov.addr = alloca ptr, align 8
  %iov_cnt.addr = alloca i32, align 4
  %offset.addr = alloca i64, align 8
  %buf.addr = alloca ptr, align 8
  %bytes.addr = alloca i64, align 8
  store ptr %iov, ptr %iov.addr, align 8
  store i32 %iov_cnt, ptr %iov_cnt.addr, align 4
  store i64 %offset, ptr %offset.addr, align 8
  store ptr %buf, ptr %buf.addr, align 8
  store i64 %bytes, ptr %bytes.addr, align 8
  %0 = load i64, ptr %bytes.addr, align 8
  %1 = call i1 @llvm.is.constant.i64(i64 %0)
  br i1 %1, label %land.lhs.true, label %if.else

land.lhs.true:                                    ; preds = %entry
  %2 = load i32, ptr %iov_cnt.addr, align 4
  %tobool = icmp ne i32 %2, 0
  br i1 %tobool, label %land.lhs.true1, label %if.else

land.lhs.true1:                                   ; preds = %land.lhs.true
  %3 = load i64, ptr %offset.addr, align 8
  %4 = load ptr, ptr %iov.addr, align 8
  %arrayidx = getelementptr %struct.iovec, ptr %4, i64 0
  %iov_len = getelementptr inbounds %struct.iovec, ptr %arrayidx, i32 0, i32 1
  %5 = load i64, ptr %iov_len, align 8
  %cmp = icmp ule i64 %3, %5
  br i1 %cmp, label %land.lhs.true2, label %if.else

land.lhs.true2:                                   ; preds = %land.lhs.true1
  %6 = load i64, ptr %bytes.addr, align 8
  %7 = load ptr, ptr %iov.addr, align 8
  %arrayidx3 = getelementptr %struct.iovec, ptr %7, i64 0
  %iov_len4 = getelementptr inbounds %struct.iovec, ptr %arrayidx3, i32 0, i32 1
  %8 = load i64, ptr %iov_len4, align 8
  %9 = load i64, ptr %offset.addr, align 8
  %sub = sub i64 %8, %9
  %cmp5 = icmp ule i64 %6, %sub
  br i1 %cmp5, label %if.then, label %if.else

if.then:                                          ; preds = %land.lhs.true2
  %10 = load ptr, ptr %buf.addr, align 8
  %11 = load ptr, ptr %iov.addr, align 8
  %arrayidx6 = getelementptr %struct.iovec, ptr %11, i64 0
  %iov_base = getelementptr inbounds %struct.iovec, ptr %arrayidx6, i32 0, i32 0
  %12 = load ptr, ptr %iov_base, align 8
  %13 = load i64, ptr %offset.addr, align 8
  %add.ptr = getelementptr i8, ptr %12, i64 %13
  %14 = load i64, ptr %bytes.addr, align 8
  call void @llvm.memcpy.p0.p0.i64(ptr align 1 %10, ptr align 1 %add.ptr, i64 %14, i1 false)
  %15 = load i64, ptr %bytes.addr, align 8
  store i64 %15, ptr %retval, align 8
  br label %return

if.else:                                          ; preds = %land.lhs.true2, %land.lhs.true1, %land.lhs.true, %entry
  %16 = load ptr, ptr %iov.addr, align 8
  %17 = load i32, ptr %iov_cnt.addr, align 4
  %18 = load i64, ptr %offset.addr, align 8
  %19 = load ptr, ptr %buf.addr, align 8
  %20 = load i64, ptr %bytes.addr, align 8
  %call = call i64 @iov_to_buf_full(ptr noundef %16, i32 noundef %17, i64 noundef %18, ptr noundef %19, i64 noundef %20)
  store i64 %call, ptr %retval, align 8
  br label %return

return:                                           ; preds = %if.else, %if.then
  %21 = load i64, ptr %retval, align 8
  ret i64 %21
}

; Function Attrs: nounwind sspstrong uwtable
define dso_local i64 @qemu_iovec_to_buf(ptr noundef %qiov, i64 noundef %offset, ptr noundef %buf, i64 noundef %bytes) #0 {
entry:
  %qiov.addr = alloca ptr, align 8
  %offset.addr = alloca i64, align 8
  %buf.addr = alloca ptr, align 8
  %bytes.addr = alloca i64, align 8
  store ptr %qiov, ptr %qiov.addr, align 8
  store i64 %offset, ptr %offset.addr, align 8
  store ptr %buf, ptr %buf.addr, align 8
  store i64 %bytes, ptr %bytes.addr, align 8
  %0 = load ptr, ptr %qiov.addr, align 8
  %iov = getelementptr inbounds %struct.QEMUIOVector, ptr %0, i32 0, i32 0
  %1 = load ptr, ptr %iov, align 8
  %2 = load ptr, ptr %qiov.addr, align 8
  %niov = getelementptr inbounds %struct.QEMUIOVector, ptr %2, i32 0, i32 1
  %3 = load i32, ptr %niov, align 8
  %4 = load i64, ptr %offset.addr, align 8
  %5 = load ptr, ptr %buf.addr, align 8
  %6 = load i64, ptr %bytes.addr, align 8
  %call = call i64 @iov_to_buf(ptr noundef %1, i32 noundef %3, i64 noundef %4, ptr noundef %5, i64 noundef %6)
  ret i64 %call
}